target datalayout = "e-m:e-p270:32:32-p271:32:32-p272:64:64-i64:64-i128:128-f80:128-n8:16:32:64-S128"
target triple = "x86_64-pc-linux-gnu"

%struct.PlatformTarget = type { ptr, i32, ptr, ptr, i32, i32, i32, i32, i32, i32, i32, [7 x %struct.AlignData], [7 x %struct.AlignData], [7 x %struct.AlignData], i32, i16, %union.anon.88, i8, i8, i8, i8, i8, i8, i8, i8, i8, i8, %struct.AlignData, i32, i32, i32, i32, i32, i32, i32, i32, i32, i32, i32, i32, i32, i32, i32, i32, ptr }
%union.anon.88 = type { %struct.anon.90 }
%struct.anon.90 = type { %struct.X86Features, i32, i32 }
%struct.X86Features = type { [2 x i64], ptr }
%struct.AlignData = type { i32, i32 }
%struct.Type_ = type { i32, ptr, ptr, ptr, %union.anon.85, ptr, ptr, %union.anon.87 }
%union.anon.85 = type { ptr }
%union.anon.87 = type { %struct.TypeFunction }
%struct.TypeFunction = type { ptr, ptr, ptr }

@platform_target = external global %struct.PlatformTarget, align 8

; Function Attrs: nounwind uwtable
define dso_local i32 @type_alloca_alignment(ptr noundef %0) #0 {
  %2 = alloca i32, align 4
  %3 = alloca ptr, align 8
  %4 = alloca i32, align 4
  store ptr %0, ptr %3, align 8
  %5 = load ptr, ptr %3, align 8
  %6 = call i32 @type_abi_alignment(ptr noundef %5)
  store i32 %6, ptr %4, align 4
  %7 = load i32, ptr %4, align 4
  %8 = icmp ult i32 %7, 16
  br i1 %8, label %9, label %28

9:                                                ; preds = %1
  %10 = load i32, ptr getelementptr inbounds (%struct.PlatformTarget, ptr @platform_target, i32 0, i32 10), align 8
  %11 = icmp eq i32 %10, 1
  br i1 %11, label %15, label %12

12:                                               ; preds = %9
  %13 = load i32, ptr getelementptr inbounds (%struct.PlatformTarget, ptr @platform_target, i32 0, i32 10), align 8
  %14 = icmp eq i32 %13, 2
  br i1 %14, label %15, label %28

15:                                               ; preds = %12, %9
  %16 = load ptr, ptr %3, align 8
  %17 = call ptr @type_lowering(ptr noundef %16)
  store ptr %17, ptr %3, align 8
  %18 = load ptr, ptr %3, align 8
  %19 = getelementptr inbounds %struct.Type_, ptr %18, i32 0, i32 0
  %20 = load i32, ptr %19, align 8
  %21 = icmp eq i32 %20, 33
  br i1 %21, label %22, label %27

22:                                               ; preds = %15
  %23 = load ptr, ptr %3, align 8
  %24 = call i32 @type_size(ptr noundef %23)
  %25 = icmp uge i32 %24, 16
  br i1 %25, label %26, label %27

26:                                               ; preds = %22
  store i32 16, ptr %2, align 4
  br label %30

27:                                               ; preds = %22, %15
  br label %28

28:                                               ; preds = %27, %12, %1
  %29 = load i32, ptr %4, align 4
  store i32 %29, ptr %2, align 4
  br label %30

30:                                               ; preds = %28, %26
  %31 = load i32, ptr %2, align 4
  ret i32 %31
}