; Function Attrs: nounwind uwtable
define dso_local i32 @type_alloca_alignment(ptr noundef %0) local_unnamed_addr #0 {
  %2 = tail call i32 @type_abi_alignment(ptr noundef %0) #4
  %3 = icmp ult i32 %2, 16
  br i1 %3, label %4, label %14

4:                                                ; preds = %1
  %5 = load i32, ptr getelementptr inbounds (%struct.PlatformTarget, ptr @platform_target, i64 0, i32 10), align 8
  %6 = add i32 %5, -1
  %or.cond = icmp ult i32 %6, 2
  br i1 %or.cond, label %7, label %14

7:                                                ; preds = %4
  %8 = tail call fastcc ptr @type_lowering(ptr noundef %0)
  %9 = load i32, ptr %8, align 8
  %10 = icmp eq i32 %9, 33
  br i1 %10, label %11, label %14

11:                                               ; preds = %7
  %12 = tail call i32 @type_size(ptr noundef nonnull %8) #4
  %13 = icmp ugt i32 %12, 15
  br i1 %13, label %15, label %14

14:                                               ; preds = %7, %11, %4, %1
  br label %15

15:                                               ; preds = %11, %14
  %.0 = phi i32 [ %2, %14 ], [ 16, %11 ]
  ret i32 %.0
}